; Function Attrs: nounwind uwtable
define noundef i32 @uniq_add(ptr noundef %0, ptr noundef %1, i32 noundef %2, ptr noundef writeonly %3, ptr noundef writeonly %4) local_unnamed_addr #0 {
  %6 = alloca [16 x i8], align 16
  %.not = icmp eq ptr %0, null
  br i1 %.not, label %92, label %7

7:                                                ; preds = %5
  %8 = getelementptr inbounds i8, ptr %0, i64 12
  %9 = load i32, ptr %8, align 4
  %10 = getelementptr inbounds i8, ptr %0, i64 16
  %11 = load i32, ptr %10, align 8
  %.not52 = icmp ult i32 %9, %11
  br i1 %.not52, label %12, label %92

12:                                               ; preds = %7
  %13 = zext i32 %2 to i64
  %14 = call ptr @cl_hash_data(ptr noundef nonnull @.str, ptr noundef %1, i64 noundef %13, ptr noundef nonnull %6, ptr noundef null) #7
  %15 = icmp eq ptr %14, null
  br i1 %15, label %92, label %16

16:                                               ; preds = %12
  %17 = getelementptr inbounds i8, ptr %0, i64 8
  %18 = load i32, ptr %17, align 8
  %.not53 = icmp eq i32 %18, 0
  %.pre = load ptr, ptr %0, align 8
  br i1 %.not53, label %.loopexit, label %19

19:                                               ; preds = %16
  %20 = getelementptr inbounds i8, ptr %0, i64 20
  %21 = load i8, ptr %6, align 16
  %22 = zext i8 %21 to i64
  %23 = getelementptr inbounds [256 x i32], ptr %20, i64 0, i64 %22
  %24 = load i32, ptr %23, align 4
  %25 = zext i32 %24 to i64
  %26 = getelementptr inbounds %struct.UNIQMD5, ptr %.pre, i64 %25
  %27 = getelementptr inbounds i8, ptr %26, i64 12
  %28 = load i8, ptr %27, align 4
  %29 = icmp ne i8 %28, %21
  %.not5464 = icmp eq ptr %.pre, null
  %or.cond = or i1 %29, %.not5464
  br i1 %or.cond, label %.loopexit, label %.lr.ph

.lr.ph:                                           ; preds = %19
  %30 = getelementptr inbounds i8, ptr %6, i64 1
  br label %31

31:                                               ; preds = %.lr.ph, %33
  %.065 = phi ptr [ %26, %.lr.ph ], [ %34, %33 ]
  %32 = getelementptr inbounds i8, ptr %.065, i64 13
  %bcmp = call i32 @bcmp(ptr noundef nonnull dereferenceable(15) %30, ptr noundef nonnull dereferenceable(15) %32, i64 15)
  %.not55 = icmp eq i32 %bcmp, 0
  br i1 %.not55, label %.loopexit62, label %33

33:                                               ; preds = %31
  %34 = load ptr, ptr %.065, align 8
  %.not54 = icmp eq ptr %34, null
  br i1 %.not54, label %.loopexit, label %31

.loopexit:                                        ; preds = %33, %19, %16
  %35 = zext i32 %18 to i64
  %36 = getelementptr inbounds %struct.UNIQMD5, ptr %.pre, i64 %35
  %37 = getelementptr inbounds i8, ptr %36, i64 8
  store i32 0, ptr %37, align 8
  %38 = load i32, ptr %17, align 8
  %.not57 = icmp eq i32 %38, 0
  br i1 %.not57, label %51, label %39

39:                                               ; preds = %.loopexit
  %40 = load ptr, ptr %0, align 8
  %41 = getelementptr inbounds i8, ptr %0, i64 20
  %42 = load i8, ptr %6, align 16
  %43 = zext i8 %42 to i64
  %44 = getelementptr inbounds [256 x i32], ptr %41, i64 0, i64 %43
  %45 = load i32, ptr %44, align 4
  %46 = zext i32 %45 to i64
  %47 = getelementptr inbounds %struct.UNIQMD5, ptr %40, i64 %46
  %48 = getelementptr inbounds i8, ptr %47, i64 12
  %49 = load i8, ptr %48, align 4
  %50 = icmp eq i8 %49, %42
  br i1 %50, label %52, label %51

51:                                               ; preds = %39, %.loopexit
  br label %52

52:                                               ; preds = %39, %51
  %storemerge = phi ptr [ null, %51 ], [ %47, %39 ]
  store ptr %storemerge, ptr %36, align 8
  %53 = load i32, ptr %17, align 8
  %54 = getelementptr inbounds i8, ptr %0, i64 20
  %55 = load i8, ptr %6, align 16
  %56 = zext i8 %55 to i64
  %57 = getelementptr inbounds [256 x i32], ptr %54, i64 0, i64 %56
  store i32 %53, ptr %57, align 4
  %58 = getelementptr inbounds i8, ptr %36, i64 28
  %59 = getelementptr inbounds i8, ptr %36, i64 12
  br label %60

60:                                               ; preds = %52, %60
  %indvars.iv = phi i64 [ 0, %52 ], [ %indvars.iv.next, %60 ]
  %61 = getelementptr inbounds [16 x i8], ptr %6, i64 0, i64 %indvars.iv
  %62 = load i8, ptr %61, align 1
  %63 = lshr i8 %62, 4
  %64 = zext nneg i8 %63 to i64
  %65 = getelementptr inbounds [16 x i8], ptr @__const.uniq_add.HEX, i64 0, i64 %64
  %66 = load i8, ptr %65, align 1
  %67 = shl nuw nsw i64 %indvars.iv, 1
  %68 = getelementptr inbounds [33 x i8], ptr %58, i64 0, i64 %67
  store i8 %66, ptr %68, align 1
  %69 = load i8, ptr %61, align 1
  %70 = and i8 %69, 15
  %71 = zext nneg i8 %70 to i64
  %72 = getelementptr inbounds [16 x i8], ptr @__const.uniq_add.HEX, i64 0, i64 %71
  %73 = load i8, ptr %72, align 1
  %74 = or disjoint i64 %67, 1
  %75 = getelementptr inbounds [33 x i8], ptr %58, i64 0, i64 %74
  store i8 %73, ptr %75, align 1
  %76 = load i8, ptr %61, align 1
  %77 = getelementptr inbounds [16 x i8], ptr %59, i64 0, i64 %indvars.iv
  store i8 %76, ptr %77, align 1
  %indvars.iv.next = add nuw nsw i64 %indvars.iv, 1
  %exitcond.not = icmp eq i64 %indvars.iv.next, 16
  br i1 %exitcond.not, label %78, label %60

78:                                               ; preds = %60
  %79 = getelementptr inbounds i8, ptr %36, i64 60
  store i8 0, ptr %79, align 4
  %80 = load i32, ptr %8, align 4
  %81 = add i32 %80, 1
  store i32 %81, ptr %8, align 4
  %.pre69 = load i32, ptr %17, align 8
  br label %.loopexit62

.loopexit62:                                      ; preds = %31, %78
  %82 = phi i32 [ %.pre69, %78 ], [ %18, %31 ]
  %.2 = phi ptr [ %36, %78 ], [ %.065, %31 ]
  %83 = add i32 %82, 1
  store i32 %83, ptr %17, align 8
  %84 = getelementptr inbounds i8, ptr %.2, i64 8
  %85 = load i32, ptr %84, align 8
  %86 = add i32 %85, 1
  store i32 %86, ptr %84, align 8
  %.not58 = icmp eq ptr %3, null
  br i1 %.not58, label %89, label %87

87:                                               ; preds = %.loopexit62
  %88 = getelementptr inbounds i8, ptr %.2, i64 28
  store ptr %88, ptr %3, align 8
  br label %89

89:                                               ; preds = %87, %.loopexit62
  %.not59 = icmp eq ptr %4, null
  br i1 %.not59, label %92, label %90

90:                                               ; preds = %89
  %91 = load i32, ptr %84, align 8
  store i32 %91, ptr %4, align 4
  br label %92

92:                                               ; preds = %89, %90, %12, %7, %5
  %.048 = phi i32 [ 3, %5 ], [ 24, %7 ], [ 26, %12 ], [ 0, %90 ], [ 0, %89 ]
  ret i32 %.048
}